target datalayout = "e-m:e-p270:32:32-p271:32:32-p272:64:64-i64:64-i128:128-f80:128-n8:16:32:64-S128"
target triple = "x86_64-pc-linux-gnu"

%struct.aom_codec_priv = type { ptr, i64, %struct.anon }
%struct.anon = type { %struct.aom_fixed_buf, i32, i32, %struct.aom_codec_cx_pkt }
%struct.aom_fixed_buf = type { ptr, i64 }
%struct.aom_codec_cx_pkt = type { i32, %union.anon.0 }
%union.anon.0 = type { %struct.aom_psnr_pkt }
%struct.aom_psnr_pkt = type { [4 x i32], [4 x i64], [4 x double], [4 x i32], [4 x i64], [4 x double] }
%struct.aom_codec_alg_priv = type { %struct.aom_codec_priv, %struct.aom_codec_dec_cfg, %struct.aom_codec_stream_info, %struct.aom_image, i32, i32, i32, ptr, i32, i32, i32, i32, i32, i32, i32, i32, %struct.EXTERNAL_REFERENCES, i32, i32, i32, ptr, %struct.aom_image, [4 x %struct.aom_codec_frame_buffer], i64, i32, ptr, ptr, ptr, ptr }
%struct.aom_codec_dec_cfg = type { i32, i32, i32, i32 }
%struct.aom_codec_stream_info = type { i32, i32, i32, i32, i32, i32 }
%struct.EXTERNAL_REFERENCES = type { [128 x %struct.yv12_buffer_config], i32 }
%struct.yv12_buffer_config = type { %union.anon.2, %union.anon.4, %union.anon.6, %union.anon.8, %union.anon.10, %union.anon.12, i32, [3 x ptr], ptr, i32, ptr, i64, i32, i64, i32, i32, i32, i32, i32, i32, i8, i32, i32, i32, i32, i32, i32, ptr }
%union.anon.2 = type { %struct.anon.3 }
%struct.anon.3 = type { i32, i32 }
%union.anon.4 = type { %struct.anon.5 }
%struct.anon.5 = type { i32, i32 }
%union.anon.6 = type { %struct.anon.7 }
%struct.anon.7 = type { i32, i32 }
%union.anon.8 = type { %struct.anon.9 }
%struct.anon.9 = type { i32, i32 }
%union.anon.10 = type { %struct.anon.11 }
%struct.anon.11 = type { i32, i32 }
%union.anon.12 = type { %struct.anon.13 }
%struct.anon.13 = type { ptr, ptr, ptr }
%struct.aom_image = type { i32, i32, i32, i32, i32, i32, i32, i32, i32, i32, i32, i32, i32, i32, i32, i32, [3 x ptr], [3 x i32], i64, i32, i32, i32, ptr, ptr, i32, i32, ptr, ptr }
%struct.aom_codec_frame_buffer = type { ptr, i64, ptr }
%struct.AVxWorker = type { ptr, i32, ptr, ptr, ptr, ptr, i32 }
%struct.FrameWorkerData = type { ptr, ptr, ptr, i64, ptr, i32, i32, i32 }
%struct.AV1Decoder = type { %struct.DecoderCodingBlock, %struct.AV1Common, %struct.AVxWorker, %struct.AV1LfSyncData, %struct.AV1LrSyncData, %struct.AV1LrStruct, ptr, i32, ptr, [16 x i8], %struct.ThreadData, ptr, i32, [64 x [64 x %struct.TileBufferDec]], %struct.AV1DecTileMTData, i32, [4 x ptr], i64, i32, i32, i32, i32, i32, i32, i32, i32, i32, i32, i32, i32, i32, i32, i32, i32, i32, i64, %struct.DataBuffer, i32, i32, i32, i32, i32, i32, %struct.EXTERNAL_REFERENCES, %struct.yv12_buffer_config, ptr, i32, i32, ptr, ptr, %struct.AV1DecRowMTInfo, ptr, i32, i32, i32, i32, [8 x i32], i32, i32, i32, %struct.aom_s_frame_info, [28 x i8] }
%struct.DecoderCodingBlock = type { %struct.macroblockd, i32, [2 x ptr], [3 x ptr], [3 x i16], [3 x ptr], [3 x i16], [29 x i8], [29 x i8] }
%struct.macroblockd = type { i32, i32, i32, i8, [3 x %struct.macroblockd_plane], %struct.TileInfo, ptr, i8, i8, i8, i8, ptr, ptr, ptr, ptr, ptr, i32, i32, i32, i32, i32, [2 x ptr], ptr, [3 x ptr], [3 x [32 x i8]], ptr, [32 x i8], ptr, ptr, [32 x i8], [3 x %struct.WienerInfo], [3 x %struct.SgrprojInfo], i8, i8, [29 x [8 x %struct.candidate_mv]], [29 x [8 x i16]], i8, i8, [8 x i8], ptr, i32, [8 x i32], [8 x i32], i32, i32, ptr, ptr, i8, [4 x i8], [4 x i8], [7 x i8], [32768 x i8], %struct.cfl_ctx, [2 x i16], ptr, [2 x ptr] }
%struct.macroblockd_plane = type { i8, i32, i32, %struct.buf_2d, [2 x %struct.buf_2d], ptr, ptr, [8 x [2 x i16]], ptr, i8, i8, [8 x [19 x ptr]], [8 x [19 x ptr]] }
%struct.buf_2d = type { ptr, ptr, i32, i32, i32 }
%struct.TileInfo = type { i32, i32, i32, i32, i32, i32 }
%struct.WienerInfo = type { [8 x i16], [8 x i16] }
%struct.SgrprojInfo = type { i32, [2 x i32] }
%struct.candidate_mv = type { %union.int_mv, %union.int_mv }
%union.int_mv = type { i32 }
%struct.cfl_ctx = type { [1024 x i16], [1024 x i16], [2 x i32], i32, [2 x [32 x i16]], i32, i32, i32, i32, i32, i32 }
%struct.AV1Common = type { %struct.CurrentFrame, %struct.aom_internal_error_info, i32, i32, i32, i32, i32, i32, i8, i8, [33 x i32], i32, ptr, ptr, [8 x i32], %struct.scale_factors, [8 x %struct.scale_factors], [8 x ptr], i32, i32, i32, %struct.FeatureFlags, %struct.CommonModeInfoParams, %struct.CommonQuantParams, %struct.segmentation, ptr, [8 x i8], %struct.loop_filter_info_n, %struct.loopfilter, [3 x %struct.RestorationInfo], ptr, ptr, %struct.yv12_buffer_config, %struct.CdefInfo, %struct.aom_film_grain_t, %struct.DeltaQInfo, [8 x %struct.WarpedMotionParams], %struct.SequenceHeader, ptr, ptr, %struct.CommonTileParams, ptr, %struct.CommonContexts, i32, [8 x i32], ptr, i32, [8 x i32], [8 x i8], i32, i32, i32, i32 }
%struct.CurrentFrame = type { i8, i8, i32, i32, i32, %struct.SkipModeInfo, i32, i32 }
%struct.SkipModeInfo = type { i32, i32, i32, i32 }
%struct.aom_internal_error_info = type { i32, i32, [200 x i8], i32, [1 x %struct.__jmp_buf_tag] }
%struct.__jmp_buf_tag = type { [8 x i64], i32, %struct.__sigset_t }
%struct.__sigset_t = type { [16 x i64] }
%struct.scale_factors = type { i32, i32, i32, i32, ptr, ptr }
%struct.FeatureFlags = type { i8, i8, i8, i8, i8, i8, i8, i8, i8, i8, i8, i8, i8, i8, i32, i32, i8 }
%struct.CommonModeInfoParams = type { i32, i32, i32, i32, i32, ptr, i32, i32, i8, ptr, i32, i32, ptr, ptr, ptr, ptr }
%struct.CommonQuantParams = type { i32, i32, i32, i32, i32, i32, [8 x [2 x i16]], [8 x [2 x i16]], [8 x [2 x i16]], [16 x [3 x [19 x ptr]]], [16 x [3 x [19 x ptr]]], [8 x [19 x ptr]], [8 x [19 x ptr]], [8 x [19 x ptr]], i8, i32, i32, i32 }
%struct.segmentation = type { i8, i8, i8, i8, [8 x [8 x i16]], [8 x i32], i32, i8 }
%struct.loop_filter_info_n = type { [64 x %struct.loop_filter_thresh], [3 x [8 x [2 x [8 x [2 x i8]]]]] }
%struct.loop_filter_thresh = type { [16 x i8], [16 x i8], [16 x i8] }
%struct.loopfilter = type { [2 x i32], i32, i32, i32, i8, i8, [8 x i8], [2 x i8], i32 }
%struct.RestorationInfo = type { i32, i32, i32, i32, i32, ptr, %struct.RestorationStripeBoundaries, i32 }
%struct.RestorationStripeBoundaries = type { ptr, ptr, i32, i32 }
%struct.CdefInfo = type { i32, i32, [16 x i32], [16 x i32], i32 }
%struct.aom_film_grain_t = type { i32, i32, [14 x [2 x i32]], i32, [10 x [2 x i32]], i32, [10 x [2 x i32]], i32, i32, i32, [24 x i32], [25 x i32], [25 x i32], i32, i32, i32, i32, i32, i32, i32, i32, i32, i32, i32, i32, i16 }
%struct.DeltaQInfo = type { i32, i32, i32, i32, i32 }
%struct.WarpedMotionParams = type { [8 x i32], i16, i16, i16, i16, i8, i8 }
%struct.SequenceHeader = type { i32, i32, i32, i32, i8, i32, i32, i8, i32, i32, %struct.OrderHintInfo, i8, i8, i8, i8, i8, i8, i8, i8, i8, i8, i8, i8, i8, i8, i32, i8, i8, i32, i32, i32, i32, i32, i32, i32, i8, i8, i32, [32 x i32], i32, %struct.aom_timing, i8, %struct.aom_dec_model_info, i8, [32 x i8], [32 x i8], [33 x %struct.aom_dec_model_op_parameters] }
%struct.OrderHintInfo = type { i32, i32, i32, i32 }
%struct.aom_timing = type { i32, i32, i32, i32 }
%struct.aom_dec_model_info = type { i32, i32, i32, i32 }
%struct.aom_dec_model_op_parameters = type { i32, i64, i64, i32, i32, i32, i32, i32 }
%struct.CommonTileParams = type { i32, i32, i32, i32, i32, i32, i32, i32, i32, i32, i32, i32, i32, i32, i32, [65 x i32], [65 x i32], i32, i32 }
%struct.CommonContexts = type { ptr, [3 x ptr], ptr, i32, i32, i32 }
%struct.AV1LfSyncData = type { [3 x ptr], [3 x ptr], [3 x ptr], i32, i32, ptr, i32, ptr, ptr, i32, i32 }
%struct.AV1LrSyncData = type { [3 x ptr], [3 x ptr], [3 x ptr], i32, i32, i32, i32, ptr, ptr, ptr, i32, i32 }
%struct.AV1LrStruct = type { ptr, [3 x %struct.FilterFrameCtxt], ptr, ptr }
%struct.FilterFrameCtxt = type { ptr, i32, i32, i32, i32, i32, ptr, ptr, i32, i32, %struct.AV1PixelRect }
%struct.AV1PixelRect = type { i32, i32, i32, i32 }
%struct.ThreadData = type { %struct.DecoderCodingBlock, %struct.CB_BUFFER, ptr, [2 x ptr], i32, i32, ptr, [2 x ptr], ptr, ptr, ptr, ptr, ptr, ptr, [24 x i8] }
%struct.CB_BUFFER = type { [3 x [16384 x i32]], [3 x [1024 x %struct.eob_info]], [2 x [16384 x i8]] }
%struct.eob_info = type { i16, i16 }
%struct.TileBufferDec = type { ptr, i64 }
%struct.AV1DecTileMTData = type { ptr, ptr, i32, i32, i32, i32 }
%struct.DataBuffer = type { ptr, i64 }
%struct.AV1DecRowMTInfo = type { i32, i32, i32, i32, i32, i32, i32, i32, i32, i32 }
%struct.aom_s_frame_info = type { i32, i32 }
%struct.__va_list_tag = type { i32, i32, ptr, ptr }
%struct.aom_tile_info = type { i32, i32, [64 x i32], [64 x i32], i32 }

; Function Attrs: nounwind uwtable
define internal i32 @ctrl_get_tile_info(ptr noundef %0, ptr noundef %1) #0 {
  %3 = alloca i32, align 4
  %4 = alloca ptr, align 8
  %5 = alloca ptr, align 8
  %6 = alloca ptr, align 8
  %7 = alloca ptr, align 8
  %8 = alloca ptr, align 8
  %9 = alloca ptr, align 8
  %10 = alloca ptr, align 8
  %11 = alloca i32, align 4
  %12 = alloca i32, align 4
  %13 = alloca i32, align 4
  %14 = alloca i32, align 4
  store ptr %0, ptr %4, align 8
  store ptr %1, ptr %5, align 8
  %15 = load ptr, ptr %5, align 8
  %16 = getelementptr inbounds nuw %struct.__va_list_tag, ptr %15, i32 0, i32 0
  %17 = load i32, ptr %16, align 8
  %18 = icmp ule i32 %17, 40
  br i1 %18, label %19, label %24

19:                                               ; preds = %2
  %20 = getelementptr inbounds nuw %struct.__va_list_tag, ptr %15, i32 0, i32 3
  %21 = load ptr, ptr %20, align 8
  %22 = getelementptr i8, ptr %21, i32 %17
  %23 = add i32 %17, 8
  store i32 %23, ptr %16, align 8
  br label %28

24:                                               ; preds = %2
  %25 = getelementptr inbounds nuw %struct.__va_list_tag, ptr %15, i32 0, i32 2
  %26 = load ptr, ptr %25, align 8
  %27 = getelementptr i8, ptr %26, i32 8
  store ptr %27, ptr %25, align 8
  br label %28

28:                                               ; preds = %24, %19
  %29 = phi ptr [ %22, %19 ], [ %26, %24 ]
  %30 = load ptr, ptr %29, align 8
  store ptr %30, ptr %6, align 8
  %31 = load ptr, ptr %6, align 8
  %32 = icmp ne ptr %31, null
  br i1 %32, label %33, label %146

33:                                               ; preds = %28
  %34 = load ptr, ptr %4, align 8
  %35 = getelementptr inbounds nuw %struct.aom_codec_alg_priv, ptr %34, i32 0, i32 20
  %36 = load ptr, ptr %35, align 8
  %37 = icmp ne ptr %36, null
  br i1 %37, label %38, label %145

38:                                               ; preds = %33
  %39 = load ptr, ptr %4, align 8
  %40 = getelementptr inbounds nuw %struct.aom_codec_alg_priv, ptr %39, i32 0, i32 20
  %41 = load ptr, ptr %40, align 8
  store ptr %41, ptr %7, align 8
  %42 = load ptr, ptr %7, align 8
  %43 = getelementptr inbounds nuw %struct.AVxWorker, ptr %42, i32 0, i32 4
  %44 = load ptr, ptr %43, align 8
  store ptr %44, ptr %8, align 8
  %45 = load ptr, ptr %8, align 8
  %46 = getelementptr inbounds nuw %struct.FrameWorkerData, ptr %45, i32 0, i32 0
  %47 = load ptr, ptr %46, align 8
  store ptr %47, ptr %9, align 8
  %48 = load ptr, ptr %9, align 8
  %49 = getelementptr inbounds nuw %struct.AV1Decoder, ptr %48, i32 0, i32 1
  %50 = getelementptr inbounds nuw %struct.AV1Common, ptr %49, i32 0, i32 40
  store ptr %50, ptr %10, align 8
  %51 = load ptr, ptr %10, align 8
  %52 = getelementptr inbounds nuw %struct.CommonTileParams, ptr %51, i32 0, i32 1
  %53 = load i32, ptr %52, align 4
  store i32 %53, ptr %11, align 4
  %54 = load ptr, ptr %10, align 8
  %55 = getelementptr inbounds nuw %struct.CommonTileParams, ptr %54, i32 0, i32 0
  %56 = load i32, ptr %55, align 4
  store i32 %56, ptr %12, align 4
  %57 = load ptr, ptr %10, align 8
  %58 = getelementptr inbounds nuw %struct.CommonTileParams, ptr %57, i32 0, i32 5
  %59 = load i32, ptr %58, align 4
  %60 = icmp ne i32 %59, 0
  br i1 %60, label %61, label %74

61:                                               ; preds = %38
  %62 = load ptr, ptr %10, align 8
  %63 = getelementptr inbounds nuw %struct.CommonTileParams, ptr %62, i32 0, i32 7
  %64 = load i32, ptr %63, align 4
  %65 = shl i32 1, %64
  %66 = load ptr, ptr %6, align 8
  %67 = getelementptr inbounds nuw %struct.aom_tile_info, ptr %66, i32 0, i32 1
  store i32 %65, ptr %67, align 4
  %68 = load ptr, ptr %10, align 8
  %69 = getelementptr inbounds nuw %struct.CommonTileParams, ptr %68, i32 0, i32 6
  %70 = load i32, ptr %69, align 4
  %71 = shl i32 1, %70
  %72 = load ptr, ptr %6, align 8
  %73 = getelementptr inbounds nuw %struct.aom_tile_info, ptr %72, i32 0, i32 0
  store i32 %71, ptr %73, align 4
  br label %81

74:                                               ; preds = %38
  %75 = load i32, ptr %11, align 4
  %76 = load ptr, ptr %6, align 8
  %77 = getelementptr inbounds nuw %struct.aom_tile_info, ptr %76, i32 0, i32 1
  store i32 %75, ptr %77, align 4
  %78 = load i32, ptr %12, align 4
  %79 = load ptr, ptr %6, align 8
  %80 = getelementptr inbounds nuw %struct.aom_tile_info, ptr %79, i32 0, i32 0
  store i32 %78, ptr %80, align 4
  br label %81

81:                                               ; preds = %74, %61
  store i32 1, ptr %13, align 4
  br label %82

82:                                               ; preds = %107, %81
  %83 = load i32, ptr %13, align 4
  %84 = load i32, ptr %12, align 4
  %85 = icmp sle i32 %83, %84
  br i1 %85, label %86, label %110

86:                                               ; preds = %82
  %87 = load ptr, ptr %10, align 8
  %88 = getelementptr inbounds nuw %struct.CommonTileParams, ptr %87, i32 0, i32 15
  %89 = load i32, ptr %13, align 4
  %90 = sext i32 %89 to i64
  %91 = getelementptr inbounds [65 x i32], ptr %88, i64 0, i64 %90
  %92 = load i32, ptr %91, align 4
  %93 = load ptr, ptr %10, align 8
  %94 = getelementptr inbounds nuw %struct.CommonTileParams, ptr %93, i32 0, i32 15
  %95 = load i32, ptr %13, align 4
  %96 = sub nsw i32 %95, 1
  %97 = sext i32 %96 to i64
  %98 = getelementptr inbounds [65 x i32], ptr %94, i64 0, i64 %97
  %99 = load i32, ptr %98, align 4
  %100 = sub nsw i32 %92, %99
  %101 = load ptr, ptr %6, align 8
  %102 = getelementptr inbounds nuw %struct.aom_tile_info, ptr %101, i32 0, i32 2
  %103 = load i32, ptr %13, align 4
  %104 = sub nsw i32 %103, 1
  %105 = sext i32 %104 to i64
  %106 = getelementptr inbounds [64 x i32], ptr %102, i64 0, i64 %105
  store i32 %100, ptr %106, align 4
  br label %107

107:                                              ; preds = %86
  %108 = load i32, ptr %13, align 4
  %109 = add nsw i32 %108, 1
  store i32 %109, ptr %13, align 4
  br label %82, !llvm.loop !13

110:                                              ; preds = %82
  store i32 1, ptr %14, align 4
  br label %111

111:                                              ; preds = %136, %110
  %112 = load i32, ptr %14, align 4
  %113 = load i32, ptr %11, align 4
  %114 = icmp sle i32 %112, %113
  br i1 %114, label %115, label %139

115:                                              ; preds = %111
  %116 = load ptr, ptr %10, align 8
  %117 = getelementptr inbounds nuw %struct.CommonTileParams, ptr %116, i32 0, i32 16
  %118 = load i32, ptr %14, align 4
  %119 = sext i32 %118 to i64
  %120 = getelementptr inbounds [65 x i32], ptr %117, i64 0, i64 %119
  %121 = load i32, ptr %120, align 4
  %122 = load ptr, ptr %10, align 8
  %123 = getelementptr inbounds nuw %struct.CommonTileParams, ptr %122, i32 0, i32 16
  %124 = load i32, ptr %14, align 4
  %125 = sub nsw i32 %124, 1
  %126 = sext i32 %125 to i64
  %127 = getelementptr inbounds [65 x i32], ptr %123, i64 0, i64 %126
  %128 = load i32, ptr %127, align 4
  %129 = sub nsw i32 %121, %128
  %130 = load ptr, ptr %6, align 8
  %131 = getelementptr inbounds nuw %struct.aom_tile_info, ptr %130, i32 0, i32 3
  %132 = load i32, ptr %14, align 4
  %133 = sub nsw i32 %132, 1
  %134 = sext i32 %133 to i64
  %135 = getelementptr inbounds [64 x i32], ptr %131, i64 0, i64 %134
  store i32 %129, ptr %135, align 4
  br label %136

136:                                              ; preds = %115
  %137 = load i32, ptr %14, align 4
  %138 = add nsw i32 %137, 1
  store i32 %138, ptr %14, align 4
  br label %111, !llvm.loop !14

139:                                              ; preds = %111
  %140 = load ptr, ptr %9, align 8
  %141 = getelementptr inbounds nuw %struct.AV1Decoder, ptr %140, i32 0, i32 59
  %142 = load i32, ptr %141, align 8
  %143 = load ptr, ptr %6, align 8
  %144 = getelementptr inbounds nuw %struct.aom_tile_info, ptr %143, i32 0, i32 4
  store i32 %142, ptr %144, align 4
  store i32 0, ptr %3, align 4
  br label %147

145:                                              ; preds = %33
  store i32 1, ptr %3, align 4
  br label %147

146:                                              ; preds = %28
  store i32 8, ptr %3, align 4
  br label %147

147:                                              ; preds = %146, %145, %139
  %148 = load i32, ptr %3, align 4
  ret i32 %148
}