; Function Attrs: nofree norecurse nosync nounwind memory(readwrite, inaccessiblemem: none) uwtable
define internal range(i32 0, 9) i32 @ctrl_get_tile_info(ptr nocapture noundef readonly %0, ptr nocapture noundef %1) #8 {
  %3 = load i32, ptr %1, align 8
  %4 = icmp ult i32 %3, 41
  br i1 %4, label %5, label %11

5:                                                ; preds = %2
  %6 = getelementptr inbounds nuw i8, ptr %1, i64 16
  %7 = load ptr, ptr %6, align 8
  %8 = zext nneg i32 %3 to i64
  %9 = getelementptr i8, ptr %7, i64 %8
  %10 = add nuw nsw i32 %3, 8
  store i32 %10, ptr %1, align 8
  br label %15

11:                                               ; preds = %2
  %12 = getelementptr inbounds nuw i8, ptr %1, i64 8
  %13 = load ptr, ptr %12, align 8
  %14 = getelementptr i8, ptr %13, i64 8
  store ptr %14, ptr %12, align 8
  br label %15

15:                                               ; preds = %11, %5
  %16 = phi ptr [ %9, %5 ], [ %13, %11 ]
  %17 = load ptr, ptr %16, align 8
  %.not = icmp eq ptr %17, null
  br i1 %.not, label %67, label %18

18:                                               ; preds = %15
  %19 = getelementptr inbounds nuw i8, ptr %0, i64 27120
  %20 = load ptr, ptr %19, align 8
  %.not43 = icmp eq ptr %20, null
  br i1 %.not43, label %67, label %21

21:                                               ; preds = %18
  %22 = getelementptr inbounds nuw i8, ptr %20, i64 32
  %23 = load ptr, ptr %22, align 8
  %24 = load ptr, ptr %23, align 8
  %25 = getelementptr inbounds i8, ptr %24, i64 75104
  %26 = getelementptr inbounds i8, ptr %24, i64 75108
  %27 = load i32, ptr %26, align 4
  %28 = load i32, ptr %25, align 4
  %29 = getelementptr inbounds i8, ptr %24, i64 75124
  %30 = load i32, ptr %29, align 4
  %.not44 = icmp eq i32 %30, 0
  br i1 %.not44, label %39, label %31

31:                                               ; preds = %21
  %32 = getelementptr inbounds i8, ptr %24, i64 75132
  %33 = load i32, ptr %32, align 4
  %34 = shl nuw i32 1, %33
  %35 = getelementptr inbounds nuw i8, ptr %17, i64 4
  store i32 %34, ptr %35, align 4
  %36 = getelementptr inbounds i8, ptr %24, i64 75128
  %37 = load i32, ptr %36, align 4
  %38 = shl nuw i32 1, %37
  br label %41

39:                                               ; preds = %21
  %40 = getelementptr inbounds nuw i8, ptr %17, i64 4
  store i32 %27, ptr %40, align 4
  br label %41

41:                                               ; preds = %39, %31
  %storemerge = phi i32 [ %28, %39 ], [ %38, %31 ]
  store i32 %storemerge, ptr %17, align 4
  %.not4547 = icmp slt i32 %28, 1
  br i1 %.not4547, label %.preheader, label %.lr.ph

.lr.ph:                                           ; preds = %41
  %42 = getelementptr inbounds i8, ptr %24, i64 75164
  %43 = getelementptr inbounds nuw i8, ptr %17, i64 8
  %44 = add nuw i32 %28, 1
  %wide.trip.count = zext i32 %44 to i64
  br label %48

.preheader:                                       ; preds = %48, %41
  %.not4649 = icmp slt i32 %27, 1
  br i1 %.not4649, label %._crit_edge, label %.lr.ph51

.lr.ph51:                                         ; preds = %.preheader
  %45 = getelementptr inbounds i8, ptr %24, i64 75424
  %46 = getelementptr inbounds nuw i8, ptr %17, i64 264
  %47 = add nuw i32 %27, 1
  %wide.trip.count56 = zext i32 %47 to i64
  br label %56

48:                                               ; preds = %.lr.ph, %48
  %indvars.iv = phi i64 [ 1, %.lr.ph ], [ %indvars.iv.next, %48 ]
  %49 = getelementptr inbounds [65 x i32], ptr %42, i64 0, i64 %indvars.iv
  %50 = load i32, ptr %49, align 4
  %51 = add nsw i64 %indvars.iv, -1
  %52 = getelementptr inbounds [65 x i32], ptr %42, i64 0, i64 %51
  %53 = load i32, ptr %52, align 4
  %54 = sub nsw i32 %50, %53
  %55 = getelementptr inbounds [64 x i32], ptr %43, i64 0, i64 %51
  store i32 %54, ptr %55, align 4
  %indvars.iv.next = add nuw nsw i64 %indvars.iv, 1
  %exitcond.not = icmp eq i64 %indvars.iv.next, %wide.trip.count
  br i1 %exitcond.not, label %.preheader, label %48, !llvm.loop !13

56:                                               ; preds = %.lr.ph51, %56
  %indvars.iv53 = phi i64 [ 1, %.lr.ph51 ], [ %indvars.iv.next54, %56 ]
  %57 = getelementptr inbounds [65 x i32], ptr %45, i64 0, i64 %indvars.iv53
  %58 = load i32, ptr %57, align 4
  %59 = add nsw i64 %indvars.iv53, -1
  %60 = getelementptr inbounds [65 x i32], ptr %45, i64 0, i64 %59
  %61 = load i32, ptr %60, align 4
  %62 = sub nsw i32 %58, %61
  %63 = getelementptr inbounds [64 x i32], ptr %46, i64 0, i64 %59
  store i32 %62, ptr %63, align 4
  %indvars.iv.next54 = add nuw nsw i64 %indvars.iv53, 1
  %exitcond57.not = icmp eq i64 %indvars.iv.next54, %wide.trip.count56
  br i1 %exitcond57.not, label %._crit_edge, label %56, !llvm.loop !14

._crit_edge:                                      ; preds = %56, %.preheader
  %64 = getelementptr inbounds nuw i8, ptr %24, i64 458936
  %65 = load i32, ptr %64, align 8
  %66 = getelementptr inbounds nuw i8, ptr %17, i64 520
  store i32 %65, ptr %66, align 4
  br label %67

67:                                               ; preds = %15, %18, %._crit_edge
  %.039 = phi i32 [ 0, %._crit_edge ], [ 1, %18 ], [ 8, %15 ]
  ret i32 %.039
}